target datalayout = "e-m:e-p270:32:32-p271:32:32-p272:64:64-i64:64-i128:128-f80:128-n8:16:32:64-S128"
target triple = "x86_64-pc-linux-gnu"

@.str.4 = private unnamed_addr constant [2 x i8] c"\0A\00", align 1
@.str.5 = private unnamed_addr constant [36 x i8] c"    portarcs [options] [selection]\0A\00", align 1
@.str.6 = private unnamed_addr constant [78 x i8] c"This command characterizes the combinational content of selected modules and\0A\00", align 1
@.str.7 = private unnamed_addr constant [81 x i8] c"derives timing arcs going from module inputs to module outputs representing the\0A\00", align 1
@.str.8 = private unnamed_addr constant [34 x i8] c"propagation delay of the module.\0A\00", align 1
@.str.9 = private unnamed_addr constant [11 x i8] c"    -draw\0A\00", align 1
@.str.10 = private unnamed_addr constant [55 x i8] c"        plot the computed delay table to the terminal\0A\00", align 1
@.str.11 = private unnamed_addr constant [13 x i8] c"    -icells\0A\00", align 1
@.str.12 = private unnamed_addr constant [73 x i8] c"        assign unit delay to gates from the internal Yosys cell library\0A\00", align 1
@.str.13 = private unnamed_addr constant [12 x i8] c"    -write\0A\00", align 1
@.str.14 = private unnamed_addr constant [77 x i8] c"        write the computed arcs back into the module as $specify2 instances\0A\00", align 1

; Function Attrs: mustprogress uwtable
define internal void @_ZN12_GLOBAL__N_112PortarcsPass4helpEv(ptr noundef nonnull align 8 dereferenceable(104) %0) unnamed_addr #4 align 2 {
  %2 = alloca ptr, align 8
  store ptr %0, ptr %2, align 8, !tbaa !6
  call void (ptr, ...) @_ZN5Yosys3logEPKcz(ptr noundef @.str.4)
  call void (ptr, ...) @_ZN5Yosys3logEPKcz(ptr noundef @.str.5)
  call void (ptr, ...) @_ZN5Yosys3logEPKcz(ptr noundef @.str.4)
  call void (ptr, ...) @_ZN5Yosys3logEPKcz(ptr noundef @.str.6)
  call void (ptr, ...) @_ZN5Yosys3logEPKcz(ptr noundef @.str.7)
  call void (ptr, ...) @_ZN5Yosys3logEPKcz(ptr noundef @.str.8)
  call void (ptr, ...) @_ZN5Yosys3logEPKcz(ptr noundef @.str.4)
  call void (ptr, ...) @_ZN5Yosys3logEPKcz(ptr noundef @.str.9)
  call void (ptr, ...) @_ZN5Yosys3logEPKcz(ptr noundef @.str.10)
  call void (ptr, ...) @_ZN5Yosys3logEPKcz(ptr noundef @.str.4)
  call void (ptr, ...) @_ZN5Yosys3logEPKcz(ptr noundef @.str.11)
  call void (ptr, ...) @_ZN5Yosys3logEPKcz(ptr noundef @.str.12)
  call void (ptr, ...) @_ZN5Yosys3logEPKcz(ptr noundef @.str.4)
  call void (ptr, ...) @_ZN5Yosys3logEPKcz(ptr noundef @.str.13)
  call void (ptr, ...) @_ZN5Yosys3logEPKcz(ptr noundef @.str.14)
  call void (ptr, ...) @_ZN5Yosys3logEPKcz(ptr noundef @.str.4)
  ret void
}